; Function Attrs: mustprogress uwtable
define internal noundef ptr @_ZN6icu_75L17_createEscUnicodeERKNS_13UnicodeStringENS_14Transliterator5TokenE(ptr noundef nonnull align 8 dereferenceable(64) %ID, ptr nocapture readnone %.coerce) #1 personality ptr @__gxx_personality_v0 {
entry:
  %ref.tmp = alloca %"class.icu_75::UnicodeString", align 8
  %agg.tmp = alloca %"class.icu_75::ConstChar16Ptr", align 8
  %ref.tmp5 = alloca %"class.icu_75::UnicodeString", align 8
  %call = tail call noundef ptr @_ZN6icu_757UMemorynwEm(i64 noundef 240) #9
  %new.isnull.not = icmp eq ptr %call, null
  br i1 %new.isnull.not, label %cleanup.done22, label %new.notnull

new.notnull:                                      ; preds = %entry
  store ptr @_ZN6icu_75L6UNIPREE, ptr %agg.tmp, align 8
  invoke void @_ZN6icu_7513UnicodeStringC1EaNS_14ConstChar16PtrEi(ptr noundef nonnull align 8 dereferenceable(64) %ref.tmp, i8 noundef signext 1, ptr noundef nonnull %agg.tmp, i32 noundef 2)
          to label %invoke.cont7 unwind label %lpad2

invoke.cont7:                                     ; preds = %new.notnull
  store ptr getelementptr inbounds ({ [13 x ptr] }, ptr @_ZTVN6icu_7513UnicodeStringE, i64 0, i32 0, i64 2), ptr %ref.tmp5, align 8
  %fUnion2.i = getelementptr inbounds i8, ptr %ref.tmp5, i64 8
  store i16 2, ptr %fUnion2.i, align 8
  invoke void @_ZN6icu_7520EscapeTransliteratorC1ERKNS_13UnicodeStringES3_S3_iiaPS0_(ptr noundef nonnull align 8 dereferenceable(240) %call, ptr noundef nonnull align 8 dereferenceable(64) %ID, ptr noundef nonnull align 8 dereferenceable(64) %ref.tmp, ptr noundef nonnull align 8 dereferenceable(64) %ref.tmp5, i32 noundef 16, i32 noundef 4, i8 noundef signext 1, ptr noundef null)
          to label %cleanup.action unwind label %lpad9

cleanup.action:                                   ; preds = %invoke.cont7
  call void @_ZN6icu_7513UnicodeStringD1Ev(ptr noundef nonnull align 8 dereferenceable(64) %ref.tmp5) #9
  call void @_ZN6icu_7513UnicodeStringD1Ev(ptr noundef nonnull align 8 dereferenceable(64) %ref.tmp) #9
  %0 = load ptr, ptr %agg.tmp, align 8
  call void asm sideeffect "", "rm,~{memory},~{dirflag},~{fpsr},~{flags}"(ptr %0) #9, !srcloc !4
  br label %cleanup.done22

cleanup.done22:                                   ; preds = %entry, %cleanup.action
  ret ptr %call

lpad2:                                            ; preds = %new.notnull
  %1 = landingpad { ptr, i32 }
          cleanup
  br label %cleanup.action25

lpad9:                                            ; preds = %invoke.cont7
  %2 = landingpad { ptr, i32 }
          cleanup
  call void @_ZN6icu_7513UnicodeStringD1Ev(ptr noundef nonnull align 8 dereferenceable(64) %ref.tmp5) #9
  call void @_ZN6icu_7513UnicodeStringD1Ev(ptr noundef nonnull align 8 dereferenceable(64) %ref.tmp) #9
  br label %cleanup.action25

cleanup.action25:                                 ; preds = %lpad2, %lpad9
  %.pn.pn = phi { ptr, i32 } [ %2, %lpad9 ], [ %1, %lpad2 ]
  %3 = load ptr, ptr %agg.tmp, align 8
  call void asm sideeffect "", "rm,~{memory},~{dirflag},~{fpsr},~{flags}"(ptr %3) #9, !srcloc !4
  call void @_ZN6icu_757UMemorydlEPv(ptr noundef nonnull %call) #9
  resume { ptr, i32 } %.pn.pn
}